target datalayout = "e-m:e-p270:32:32-p271:32:32-p272:64:64-i64:64-i128:128-f80:128-n8:16:32:64-S128"
target triple = "x86_64-pc-linux-gnu"

%struct.decoration = type { ptr, i32, i32, ptr }
%struct.strbuf = type { i64, i64, ptr }
%struct.string_list = type { ptr, i64, i64, i8, ptr }
%struct.rev_info = type { ptr, %struct.object_array, ptr, %struct.object_array, %struct.rev_cmdline_info, %struct.list_objects_filter_options, %struct.ref_exclusions, ptr, ptr, ptr, %struct.pathspec, i32, i32, i32, i32, i64, i32, i32, %struct.date_mode, i32, i32, i32, i32, ptr, i32, i32, ptr, ptr, i32, ptr, ptr, %struct.ident_split, ptr, i32, ptr, ptr, ptr, i32, i32, i32, ptr, %struct.grep_opt, ptr, i32, i32, i64, i64, i64, i32, i32, ptr, ptr, ptr, %struct.diff_options, %struct.diff_options, ptr, %struct.decoration, %struct.decoration, %struct.decoration, %struct.display_notes_opt, ptr, ptr, ptr, ptr, ptr, i32, ptr, i32, i32, i32, %struct.decoration, ptr, ptr, ptr, ptr, ptr, ptr, ptr, i32, ptr, i32, ptr, %struct.oidset }
%struct.object_array = type { i32, i32, ptr }
%struct.rev_cmdline_info = type { i32, i32, ptr }
%struct.list_objects_filter_options = type { %struct.strbuf, i32, i8, ptr, i64, i64, i32, i64, i64, ptr }
%struct.ref_exclusions = type { %struct.string_list, %struct.strvec, i8 }
%struct.strvec = type { ptr, i64, i64 }
%struct.pathspec = type { i32, i8, i32, i32, ptr }
%struct.date_mode = type { i32, i32, ptr }
%struct.ident_split = type { ptr, ptr, ptr, ptr, ptr, ptr, ptr, ptr }
%struct.grep_opt = type { ptr, ptr, ptr, ptr, ptr, ptr, i32, i32, i32, i32, i32, i32, i32, i32, i32, i32, i32, i32, i32, i32, i32, i32, i32, i32, i32, i32, i32, i32, i32, i32, i32, i32, [9 x [75 x i8]], i32, i32, i32, i32, i32, i32, i32, ptr, ptr, ptr }
%struct.diff_options = type { ptr, ptr, i32, i32, ptr, i32, ptr, i64, i64, ptr, ptr, ptr, ptr, %struct.diff_flags, i32, i32, i32, i32, i32, i32, i32, i32, i32, i32, i32, i32, i32, i32, i32, i32, i32, i32, i32, i32, i32, i32, ptr, i32, ptr, i32, i32, ptr, i64, i64, i32, i32, i32, i32, ptr, i32, i32, ptr, i32, i32, ptr, ptr, i32, [3 x i8], %struct.pathspec, ptr, ptr, ptr, ptr, ptr, ptr, ptr, ptr, i32, ptr, i32, i32, ptr, ptr, i32 }
%struct.diff_flags = type { i32, i32, i32, i32, i32, i32, i32, i32, i32, i32, i32, i32, i32, i32, i32, i32, i32, i32, i32, i32, i32, i32, i32, i32, i32, i32, i32, i32, i32, i32, i32, i32, i32, i32, i32 }
%struct.display_notes_opt = type { i32, %struct.string_list }
%struct.oidset = type { %struct.kh_oid_set }
%struct.kh_oid_set = type { i32, i32, i32, i32, ptr, ptr, ptr }

@.str.30 = private unnamed_addr constant [4 x i8] c"---\00", align 1

; Function Attrs: nounwind uwtable
define dso_local i32 @log_tree_diff_flush(ptr noundef %0) #0 {
  %2 = alloca i32, align 4
  %3 = alloca ptr, align 8
  %4 = alloca i32, align 4
  %5 = alloca i32, align 4
  store ptr %0, ptr %3, align 8, !tbaa !71
  %6 = load ptr, ptr %3, align 8, !tbaa !71
  %7 = getelementptr inbounds nuw %struct.rev_info, ptr %6, i32 0, i32 17
  %8 = load i32, ptr %7, align 4
  %9 = and i32 %8, -3
  %10 = or i32 %9, 0
  store i32 %10, ptr %7, align 4
  %11 = load ptr, ptr %3, align 8, !tbaa !71
  %12 = getelementptr inbounds nuw %struct.rev_info, ptr %11, i32 0, i32 53
  call void @diffcore_std(ptr noundef %12)
  %13 = load ptr, ptr %3, align 8, !tbaa !71
  %14 = getelementptr inbounds nuw %struct.rev_info, ptr %13, i32 0, i32 53
  %15 = call i32 @diff_queue_is_empty(ptr noundef %14)
  %16 = icmp ne i32 %15, 0
  br i1 %16, label %17, label %31

17:                                               ; preds = %1
  call void @llvm.lifetime.start.p0(i64 4, ptr %4) #10
  %18 = load ptr, ptr %3, align 8, !tbaa !71
  %19 = getelementptr inbounds nuw %struct.rev_info, ptr %18, i32 0, i32 53
  %20 = getelementptr inbounds nuw %struct.diff_options, ptr %19, i32 0, i32 24
  %21 = load i32, ptr %20, align 4, !tbaa !208
  store i32 %21, ptr %4, align 4, !tbaa !15
  %22 = load ptr, ptr %3, align 8, !tbaa !71
  %23 = getelementptr inbounds nuw %struct.rev_info, ptr %22, i32 0, i32 53
  %24 = getelementptr inbounds nuw %struct.diff_options, ptr %23, i32 0, i32 24
  store i32 2048, ptr %24, align 4, !tbaa !208
  %25 = load ptr, ptr %3, align 8, !tbaa !71
  %26 = getelementptr inbounds nuw %struct.rev_info, ptr %25, i32 0, i32 53
  call void @diff_flush(ptr noundef %26)
  %27 = load i32, ptr %4, align 4, !tbaa !15
  %28 = load ptr, ptr %3, align 8, !tbaa !71
  %29 = getelementptr inbounds nuw %struct.rev_info, ptr %28, i32 0, i32 53
  %30 = getelementptr inbounds nuw %struct.diff_options, ptr %29, i32 0, i32 24
  store i32 %27, ptr %30, align 4, !tbaa !208
  store i32 0, ptr %2, align 4
  call void @llvm.lifetime.end.p0(i64 4, ptr %4) #10
  br label %111

31:                                               ; preds = %1
  %32 = load ptr, ptr %3, align 8, !tbaa !71
  %33 = getelementptr inbounds nuw %struct.rev_info, ptr %32, i32 0, i32 23
  %34 = load ptr, ptr %33, align 8, !tbaa !138
  %35 = icmp ne ptr %34, null
  br i1 %35, label %36, label %108

36:                                               ; preds = %31
  %37 = load ptr, ptr %3, align 8, !tbaa !71
  %38 = getelementptr inbounds nuw %struct.rev_info, ptr %37, i32 0, i32 15
  %39 = load i64, ptr %38, align 8
  %40 = lshr i64 %39, 48
  %41 = and i64 %40, 1
  %42 = trunc i64 %41 to i32
  %43 = icmp ne i32 %42, 0
  br i1 %43, label %108, label %44

44:                                               ; preds = %36
  %45 = load ptr, ptr %3, align 8, !tbaa !71
  call void @show_log(ptr noundef %45)
  %46 = load ptr, ptr %3, align 8, !tbaa !71
  %47 = getelementptr inbounds nuw %struct.rev_info, ptr %46, i32 0, i32 53
  %48 = getelementptr inbounds nuw %struct.diff_options, ptr %47, i32 0, i32 24
  %49 = load i32, ptr %48, align 4, !tbaa !208
  %50 = and i32 %49, -2049
  %51 = icmp ne i32 %50, 0
  br i1 %51, label %52, label %107

52:                                               ; preds = %44
  %53 = load ptr, ptr %3, align 8, !tbaa !71
  %54 = getelementptr inbounds nuw %struct.rev_info, ptr %53, i32 0, i32 15
  %55 = load i64, ptr %54, align 8
  %56 = lshr i64 %55, 49
  %57 = and i64 %56, 1
  %58 = trunc i64 %57 to i32
  %59 = icmp ne i32 %58, 0
  br i1 %59, label %60, label %107

60:                                               ; preds = %52
  %61 = load ptr, ptr %3, align 8, !tbaa !71
  %62 = getelementptr inbounds nuw %struct.rev_info, ptr %61, i32 0, i32 22
  %63 = load i32, ptr %62, align 4, !tbaa !166
  %64 = icmp ne i32 %63, 5
  br i1 %64, label %65, label %107

65:                                               ; preds = %60
  %66 = load ptr, ptr %3, align 8, !tbaa !71
  %67 = getelementptr inbounds nuw %struct.rev_info, ptr %66, i32 0, i32 22
  %68 = load i32, ptr %67, align 4, !tbaa !166
  %69 = call i32 @commit_format_is_empty(i32 noundef %68)
  %70 = icmp ne i32 %69, 0
  br i1 %70, label %107, label %71

71:                                               ; preds = %65
  call void @llvm.lifetime.start.p0(i64 4, ptr %5) #10
  store i32 18, ptr %5, align 4, !tbaa !15
  %72 = load ptr, ptr %3, align 8, !tbaa !71
  %73 = getelementptr inbounds nuw %struct.rev_info, ptr %72, i32 0, i32 53
  %74 = call ptr @diff_line_prefix(ptr noundef %73)
  %75 = load ptr, ptr %3, align 8, !tbaa !71
  %76 = getelementptr inbounds nuw %struct.rev_info, ptr %75, i32 0, i32 53
  %77 = getelementptr inbounds nuw %struct.diff_options, ptr %76, i32 0, i32 55
  %78 = load ptr, ptr %77, align 8, !tbaa !117
  %79 = call i32 @fputs(ptr noundef %74, ptr noundef %78)
  %80 = load ptr, ptr %3, align 8, !tbaa !71
  %81 = getelementptr inbounds nuw %struct.rev_info, ptr %80, i32 0, i32 17
  %82 = load i32, ptr %81, align 4
  %83 = lshr i32 %82, 1
  %84 = and i32 %83, 1
  %85 = icmp ne i32 %84, 0
  br i1 %85, label %101, label %86

86:                                               ; preds = %71
  %87 = load i32, ptr %5, align 4, !tbaa !15
  %88 = load ptr, ptr %3, align 8, !tbaa !71
  %89 = getelementptr inbounds nuw %struct.rev_info, ptr %88, i32 0, i32 53
  %90 = getelementptr inbounds nuw %struct.diff_options, ptr %89, i32 0, i32 24
  %91 = load i32, ptr %90, align 4, !tbaa !208
  %92 = and i32 %87, %91
  %93 = load i32, ptr %5, align 4, !tbaa !15
  %94 = icmp eq i32 %92, %93
  br i1 %94, label %95, label %101

95:                                               ; preds = %86
  %96 = load ptr, ptr %3, align 8, !tbaa !71
  %97 = getelementptr inbounds nuw %struct.rev_info, ptr %96, i32 0, i32 53
  %98 = getelementptr inbounds nuw %struct.diff_options, ptr %97, i32 0, i32 55
  %99 = load ptr, ptr %98, align 8, !tbaa !117
  %100 = call i32 (ptr, ptr, ...) @fprintf(ptr noundef %99, ptr noundef @.str.30) #10
  br label %101

101:                                              ; preds = %95, %86, %71
  %102 = load ptr, ptr %3, align 8, !tbaa !71
  %103 = getelementptr inbounds nuw %struct.rev_info, ptr %102, i32 0, i32 53
  %104 = getelementptr inbounds nuw %struct.diff_options, ptr %103, i32 0, i32 55
  %105 = load ptr, ptr %104, align 8, !tbaa !117
  %106 = call i32 @putc(i32 noundef 10, ptr noundef %105)
  call void @llvm.lifetime.end.p0(i64 4, ptr %5) #10
  br label %107

107:                                              ; preds = %101, %65, %60, %52, %44
  br label %108

108:                                              ; preds = %107, %36, %31
  %109 = load ptr, ptr %3, align 8, !tbaa !71
  %110 = getelementptr inbounds nuw %struct.rev_info, ptr %109, i32 0, i32 53
  call void @diff_flush(ptr noundef %110)
  store i32 1, ptr %2, align 4
  br label %111

111:                                              ; preds = %108, %17
  %112 = load i32, ptr %2, align 4
  ret i32 %112
}