; Function Attrs: nounwind uwtable
define dso_local range(i32 0, 2) i32 @log_tree_diff_flush(ptr noundef %0) local_unnamed_addr #0 {
  %2 = getelementptr inbounds nuw i8, ptr %0, i64 300
  %3 = load i32, ptr %2, align 4
  %4 = and i32 %3, -3
  store i32 %4, ptr %2, align 4
  %5 = getelementptr inbounds nuw i8, ptr %0, i64 1472
  tail call void @diffcore_std(ptr noundef nonnull %5) #15
  %6 = tail call i32 @diff_queue_is_empty(ptr noundef nonnull %5) #15
  %.not = icmp eq i32 %6, 0
  br i1 %.not, label %10, label %7

7:                                                ; preds = %1
  %8 = getelementptr inbounds nuw i8, ptr %0, i64 1748
  %9 = load i32, ptr %8, align 4, !tbaa !181
  store i32 2048, ptr %8, align 4, !tbaa !181
  tail call void @diff_flush(ptr noundef nonnull %5) #15
  store i32 %9, ptr %8, align 4, !tbaa !181
  br label %47

10:                                               ; preds = %1
  %11 = getelementptr inbounds nuw i8, ptr %0, i64 336
  %12 = load ptr, ptr %11, align 8, !tbaa !115
  %.not25 = icmp eq ptr %12, null
  br i1 %.not25, label %46, label %13

13:                                               ; preds = %10
  %14 = getelementptr inbounds nuw i8, ptr %0, i64 288
  %15 = load i64, ptr %14, align 8
  %16 = and i64 %15, 281474976710656
  %.not26 = icmp eq i64 %16, 0
  br i1 %.not26, label %17, label %46

17:                                               ; preds = %13
  tail call void @show_log(ptr noundef nonnull %0)
  %18 = getelementptr inbounds nuw i8, ptr %0, i64 1748
  %19 = load i32, ptr %18, align 4, !tbaa !181
  %20 = and i32 %19, -2049
  %.not27 = icmp eq i32 %20, 0
  br i1 %.not27, label %46, label %21

21:                                               ; preds = %17
  %22 = load i64, ptr %14, align 8
  %23 = and i64 %22, 562949953421312
  %.not28 = icmp eq i64 %23, 0
  br i1 %.not28, label %46, label %24

24:                                               ; preds = %21
  %25 = getelementptr inbounds nuw i8, ptr %0, i64 332
  %26 = load i32, ptr %25, align 4, !tbaa !149
  %.not29 = icmp eq i32 %26, 5
  br i1 %.not29, label %46, label %27

27:                                               ; preds = %24
  %28 = tail call i32 @commit_format_is_empty(i32 noundef %26) #15
  %.not30 = icmp eq i32 %28, 0
  br i1 %.not30, label %29, label %46

29:                                               ; preds = %27
  %30 = tail call ptr @diff_line_prefix(ptr noundef nonnull %5) #15
  %31 = getelementptr inbounds nuw i8, ptr %0, i64 1912
  %32 = load ptr, ptr %31, align 8, !tbaa !95
  %33 = tail call i32 @fputs(ptr noundef %30, ptr noundef %32)
  %34 = load i32, ptr %2, align 4
  %35 = and i32 %34, 2
  %.not31 = icmp eq i32 %35, 0
  br i1 %.not31, label %36, label %43

36:                                               ; preds = %29
  %37 = load i32, ptr %18, align 4, !tbaa !181
  %38 = and i32 %37, 18
  %39 = icmp eq i32 %38, 18
  br i1 %39, label %40, label %43

40:                                               ; preds = %36
  %41 = load ptr, ptr %31, align 8, !tbaa !95
  %42 = tail call i64 @fwrite(ptr nonnull @.str.30, i64 3, i64 1, ptr %41)
  br label %43

43:                                               ; preds = %40, %36, %29
  %44 = load ptr, ptr %31, align 8, !tbaa !95
  %45 = tail call i32 @putc(i32 noundef 10, ptr noundef %44)
  br label %46

46:                                               ; preds = %17, %21, %24, %27, %43, %13, %10
  tail call void @diff_flush(ptr noundef nonnull %5) #15
  br label %47

47:                                               ; preds = %46, %7
  %.0 = phi i32 [ 0, %7 ], [ 1, %46 ]
  ret i32 %.0
}